target datalayout = "e-m:e-p270:32:32-p271:32:32-p272:64:64-i64:64-i128:128-f80:128-n8:16:32:64-S128"
target triple = "x86_64-pc-linux-gnu"

%struct.If_LibLut_t_ = type { ptr, i32, i32, [33 x float], [33 x [33 x float]] }

@.str.1 = private unnamed_addr constant [13 x i8] c"FPGA mapping\00", align 1
@.str.2 = private unnamed_addr constant [9 x i8] c"read_lut\00", align 1
@.str.3 = private unnamed_addr constant [10 x i8] c"print_lut\00", align 1
@.str.4 = private unnamed_addr constant [9 x i8] c"read_box\00", align 1
@.str.5 = private unnamed_addr constant [10 x i8] c"print_box\00", align 1

; Function Attrs: nounwind uwtable
define void @If_Init(ptr noundef %0) #0 {
  %2 = alloca ptr, align 8
  %3 = alloca %struct.If_LibLut_t_, align 8
  store ptr %0, ptr %2, align 8, !tbaa !3
  call void @llvm.lifetime.start.p0(i64 4504, ptr %3) #5
  call void @llvm.memcpy.p0.p0.i64(ptr align 8 %3, ptr align 8 @__const.If_Init.s_LutLib, i64 4504, i1 false)
  %4 = call ptr @If_LibLutDup(ptr noundef %3)
  call void @Abc_FrameSetLibLut(ptr noundef %4)
  %5 = load ptr, ptr %2, align 8, !tbaa !3
  call void @Cmd_CommandAdd(ptr noundef %5, ptr noundef @.str.1, ptr noundef @.str.2, ptr noundef @If_CommandReadLut, i32 noundef 0)
  %6 = load ptr, ptr %2, align 8, !tbaa !3
  call void @Cmd_CommandAdd(ptr noundef %6, ptr noundef @.str.1, ptr noundef @.str.3, ptr noundef @If_CommandPrintLut, i32 noundef 0)
  %7 = load ptr, ptr %2, align 8, !tbaa !3
  call void @Cmd_CommandAdd(ptr noundef %7, ptr noundef @.str.1, ptr noundef @.str.4, ptr noundef @If_CommandReadBox, i32 noundef 0)
  %8 = load ptr, ptr %2, align 8, !tbaa !3
  call void @Cmd_CommandAdd(ptr noundef %8, ptr noundef @.str.1, ptr noundef @.str.5, ptr noundef @If_CommandPrintBox, i32 noundef 0)
  call void @llvm.lifetime.end.p0(i64 4504, ptr %3) #5
  ret void
}