; Function Attrs: nounwind uwtable
define void @If_Init(ptr noundef %0) local_unnamed_addr #0 {
  %2 = alloca %struct.If_LibLut_t_, align 8
  call void @llvm.lifetime.start.p0(i64 4504, ptr nonnull %2) #6
  call void @llvm.memcpy.p0.p0.i64(ptr noundef nonnull align 8 dereferenceable(4504) %2, ptr noundef nonnull align 8 dereferenceable(4504) @__const.If_Init.s_LutLib, i64 4504, i1 false)
  %3 = call ptr @If_LibLutDup(ptr noundef nonnull %2) #6
  call void @Abc_FrameSetLibLut(ptr noundef %3) #6
  call void @Cmd_CommandAdd(ptr noundef %0, ptr noundef nonnull @.str.1, ptr noundef nonnull @.str.2, ptr noundef nonnull @If_CommandReadLut, i32 noundef 0) #6
  call void @Cmd_CommandAdd(ptr noundef %0, ptr noundef nonnull @.str.1, ptr noundef nonnull @.str.3, ptr noundef nonnull @If_CommandPrintLut, i32 noundef 0) #6
  call void @Cmd_CommandAdd(ptr noundef %0, ptr noundef nonnull @.str.1, ptr noundef nonnull @.str.4, ptr noundef nonnull @If_CommandReadBox, i32 noundef 0) #6
  call void @Cmd_CommandAdd(ptr noundef %0, ptr noundef nonnull @.str.1, ptr noundef nonnull @.str.5, ptr noundef nonnull @If_CommandPrintBox, i32 noundef 0) #6
  call void @llvm.lifetime.end.p0(i64 4504, ptr nonnull %2) #6
  ret void
}